target datalayout = "e-m:e-p270:32:32-p271:32:32-p272:64:64-i64:64-i128:128-f80:128-n8:16:32:64-S128"
target triple = "x86_64-unknown-linux-gnu"

%class.mpz = type { i32, i8, ptr }
%class.svector = type { %class.vector }
%class.vector = type { ptr }
%"class.polynomial::manager" = type { ptr }
%"struct.polynomial::manager::imp" = type { ptr, ptr, %class.mpzzp_manager, %"class.upolynomial::manager", ptr, %class.ptr_vector, %class.id_gen, ptr, ptr, %class.mpz, ptr, %"class.polynomial::monomial2pos", %"class.polynomial::tmp_monomial", %class.svector.1, %class.svector.1, %class.ptr_vector.4, %class.svector, i8, i8, %"class.polynomial::manager::imp::som_buffer", %"class.polynomial::manager::imp::som_buffer", %"class.polynomial::manager::imp::cheap_som_buffer", %"class.polynomial::manager::imp::cheap_som_buffer", %class.vector.6, %class.svector, %class.svector.7, %class.svector, %"class.polynomial::manager::imp::som_buffer_vector", %"class.polynomial::manager::imp::newton_interpolator_vector", %class.scoped_ptr_vector, %"class.polynomial::manager::imp::var_max_degree", %"struct.polynomial::manager::imp::var_pos", %"class.polynomial::manager::imp::som_buffer_vector" }
%class.mpzzp_manager = type { ptr, i8, %class.mpz, %class.mpz, %class.mpz, i8, %class.mpz, %class.mpz, %class.mpz, %class.mpz }
%"class.upolynomial::manager" = type { %"class.upolynomial::core_manager", %class.svector.1, %class.svector.1, %class.svector.1, %class.svector.1, %class.svector.1 }
%"class.upolynomial::core_manager" = type { ptr, %class.mpzzp_manager, %class.svector.1, %class.svector.1, %class.svector.1, %class.svector.1, %class.svector.1, %class.svector.1, %class.svector.1, [6 x %class.svector.1], %class.svector.1, %class.svector.1, %class.svector.1 }
%class.ptr_vector = type { %class.vector.3 }
%class.vector.3 = type { ptr }
%class.id_gen = type { i32, %class.svector }
%"class.polynomial::monomial2pos" = type { %class.svector }
%"class.polynomial::tmp_monomial" = type <{ ptr, i32, [4 x i8] }>
%class.svector.1 = type { %class.vector.2 }
%class.vector.2 = type { ptr }
%class.ptr_vector.4 = type { %class.vector.5 }
%class.vector.5 = type { ptr }
%"class.polynomial::manager::imp::som_buffer" = type { ptr, %"class.polynomial::monomial2pos", %class.svector.1, %class.ptr_vector.4 }
%"class.polynomial::manager::imp::cheap_som_buffer" = type { ptr, %class.svector.1, %class.ptr_vector.4 }
%class.vector.6 = type { ptr }
%class.svector.7 = type { %class.vector.8 }
%class.vector.8 = type { ptr }
%"class.polynomial::manager::imp::newton_interpolator_vector" = type { ptr, %class.ptr_vector.11 }
%class.ptr_vector.11 = type { %class.vector.12 }
%class.vector.12 = type { ptr }
%class.scoped_ptr_vector = type { %class.ptr_vector.13 }
%class.ptr_vector.13 = type { %class.vector.14 }
%class.vector.14 = type { ptr }
%"class.polynomial::manager::imp::var_max_degree" = type { %class.svector, %class.svector }
%"struct.polynomial::manager::imp::var_pos" = type { %class.svector }
%"class.polynomial::manager::imp::som_buffer_vector" = type { ptr, %class.ptr_vector.9 }
%class.ptr_vector.9 = type { %class.vector.10 }
%class.vector.10 = type { ptr }
%"struct.polynomial::manager::imp::var2mpq_wrapper" = type { %"class.polynomial::var2value", %"struct.polynomial::manager::imp::scoped_var_pos", ptr }
%"class.polynomial::var2value" = type { ptr }
%"struct.polynomial::manager::imp::scoped_var_pos" = type { ptr, i32, ptr }

; Function Attrs: mustprogress nounwind uwtable
define linkonce_odr hidden noundef nonnull align 4 dereferenceable(4) ptr @_ZN6vectorIjLb0EjEixEj(ptr noundef nonnull align 8 dereferenceable(8) %this, i32 noundef %idx) #4 comdat align 2 {
entry:
  %this.addr = alloca ptr, align 8
  %idx.addr = alloca i32, align 4
  store ptr %this, ptr %this.addr, align 8
  store i32 %idx, ptr %idx.addr, align 4
  %this1 = load ptr, ptr %this.addr, align 8
  %m_data = getelementptr inbounds %class.vector, ptr %this1, i32 0, i32 0
  %0 = load ptr, ptr %m_data, align 8
  %1 = load i32, ptr %idx.addr, align 4
  %idxprom = zext i32 %1 to i64
  %arrayidx = getelementptr inbounds i32, ptr %0, i64 %idxprom
  ret ptr %arrayidx
}

; Function Attrs: noreturn nounwind uwtable
define linkonce_odr hidden void @__clang_call_terminate(ptr noundef %0) #6 comdat {
  %2 = call ptr @__cxa_begin_catch(ptr %0) #3
  call void @_ZSt9terminatev() #16
  unreachable
}

; Function Attrs: mustprogress uwtable
define linkonce_odr hidden void @_ZN10polynomial7manager3imp7var_pos5resetEjPKj(ptr noundef nonnull align 8 dereferenceable(8) %this, i32 noundef %sz, ptr noundef %xs) #5 comdat align 2 {
entry:
  %this.addr = alloca ptr, align 8
  %sz.addr = alloca i32, align 4
  %xs.addr = alloca ptr, align 8
  %i = alloca i32, align 4
  store ptr %this, ptr %this.addr, align 8
  store i32 %sz, ptr %sz.addr, align 4
  store ptr %xs, ptr %xs.addr, align 8
  %this1 = load ptr, ptr %this.addr, align 8
  store i32 0, ptr %i, align 4
  br label %for.cond

for.cond:                                         ; preds = %for.inc, %entry
  %0 = load i32, ptr %i, align 4
  %1 = load i32, ptr %sz.addr, align 4
  %cmp = icmp ult i32 %0, %1
  br i1 %cmp, label %for.body, label %for.end

for.body:                                         ; preds = %for.cond
  %m_pos = getelementptr inbounds %"struct.polynomial::manager::imp::var_pos", ptr %this1, i32 0, i32 0
  %2 = load ptr, ptr %xs.addr, align 8
  %3 = load i32, ptr %i, align 4
  %idxprom = zext i32 %3 to i64
  %arrayidx = getelementptr inbounds i32, ptr %2, i64 %idxprom
  %4 = load i32, ptr %arrayidx, align 4
  %call = call noundef nonnull align 4 dereferenceable(4) ptr @_ZN6vectorIjLb0EjEixEj(ptr noundef nonnull align 8 dereferenceable(8) %m_pos, i32 noundef %4)
  store i32 -1, ptr %call, align 4
  br label %for.inc

for.inc:                                          ; preds = %for.body
  %5 = load i32, ptr %i, align 4
  %inc = add i32 %5, 1
  store i32 %inc, ptr %i, align 4
  br label %for.cond, !llvm.loop !330

for.end:                                          ; preds = %for.cond
  ret void
}

; Function Attrs: mustprogress nounwind uwtable
define linkonce_odr hidden void @_ZN10polynomial7manager3imp14scoped_var_posD2Ev(ptr noundef nonnull align 8 dereferenceable(24) %this) unnamed_addr #4 comdat align 2 personality ptr @__gxx_personality_v0 {
entry:
  %this.addr = alloca ptr, align 8
  store ptr %this, ptr %this.addr, align 8
  %this1 = load ptr, ptr %this.addr, align 8
  %m = getelementptr inbounds %"struct.polynomial::manager::imp::scoped_var_pos", ptr %this1, i32 0, i32 0
  %0 = load ptr, ptr %m, align 8
  %m_xs_sz = getelementptr inbounds %"struct.polynomial::manager::imp::scoped_var_pos", ptr %this1, i32 0, i32 1
  %1 = load i32, ptr %m_xs_sz, align 8
  %m_xs = getelementptr inbounds %"struct.polynomial::manager::imp::scoped_var_pos", ptr %this1, i32 0, i32 2
  %2 = load ptr, ptr %m_xs, align 8
  invoke void @_ZN10polynomial7manager3imp7var_pos5resetEjPKj(ptr noundef nonnull align 8 dereferenceable(8) %0, i32 noundef %1, ptr noundef %2)
          to label %invoke.cont unwind label %terminate.lpad

invoke.cont:                                      ; preds = %entry
  ret void

terminate.lpad:                                   ; preds = %entry
  %3 = landingpad { ptr, i32 }
          catch ptr null
  %4 = extractvalue { ptr, i32 } %3, 0
  call void @__clang_call_terminate(ptr %4) #16
  unreachable
}

; Function Attrs: mustprogress nounwind uwtable
define linkonce_odr hidden void @_ZN10polynomial9var2valueI11mpq_managerILb0EE3mpqED2Ev(ptr noundef nonnull align 8 dereferenceable(8) %this) unnamed_addr #4 comdat align 2 {
entry:
  %this.addr = alloca ptr, align 8
  store ptr %this, ptr %this.addr, align 8
  ret void
}

; Function Attrs: mustprogress uwtable
define linkonce_odr hidden void @_ZN10polynomial7manager3imp14scoped_var_posC2ERNS1_7var_posEjPKj(ptr noundef nonnull align 8 dereferenceable(24) %this, ptr noundef nonnull align 8 dereferenceable(8) %p, i32 noundef %xs_sz, ptr noundef %xs) unnamed_addr #5 comdat align 2 {
entry:
  %this.addr = alloca ptr, align 8
  %p.addr = alloca ptr, align 8
  %xs_sz.addr = alloca i32, align 4
  %xs.addr = alloca ptr, align 8
  store ptr %this, ptr %this.addr, align 8
  store ptr %p, ptr %p.addr, align 8
  store i32 %xs_sz, ptr %xs_sz.addr, align 4
  store ptr %xs, ptr %xs.addr, align 8
  %this1 = load ptr, ptr %this.addr, align 8
  %m = getelementptr inbounds %"struct.polynomial::manager::imp::scoped_var_pos", ptr %this1, i32 0, i32 0
  %0 = load ptr, ptr %p.addr, align 8
  store ptr %0, ptr %m, align 8
  %m_xs_sz = getelementptr inbounds %"struct.polynomial::manager::imp::scoped_var_pos", ptr %this1, i32 0, i32 1
  %1 = load i32, ptr %xs_sz.addr, align 4
  store i32 %1, ptr %m_xs_sz, align 8
  %m_xs = getelementptr inbounds %"struct.polynomial::manager::imp::scoped_var_pos", ptr %this1, i32 0, i32 2
  %2 = load ptr, ptr %xs.addr, align 8
  store ptr %2, ptr %m_xs, align 8
  %m2 = getelementptr inbounds %"struct.polynomial::manager::imp::scoped_var_pos", ptr %this1, i32 0, i32 0
  %3 = load ptr, ptr %m2, align 8
  %m_xs_sz3 = getelementptr inbounds %"struct.polynomial::manager::imp::scoped_var_pos", ptr %this1, i32 0, i32 1
  %4 = load i32, ptr %m_xs_sz3, align 8
  %m_xs4 = getelementptr inbounds %"struct.polynomial::manager::imp::scoped_var_pos", ptr %this1, i32 0, i32 2
  %5 = load ptr, ptr %m_xs4, align 8
  call void @_ZN10polynomial7manager3imp7var_pos4initEjPKj(ptr noundef nonnull align 8 dereferenceable(8) %3, i32 noundef %4, ptr noundef %5)
  ret void
}

; Function Attrs: mustprogress nounwind uwtable
define linkonce_odr hidden void @_ZN10polynomial9var2valueI11mpq_managerILb0EE3mpqEC2Ev(ptr noundef nonnull align 8 dereferenceable(8) %this) unnamed_addr #4 comdat align 2 {
entry:
  %this.addr = alloca ptr, align 8
  store ptr %this, ptr %this.addr, align 8
  %this1 = load ptr, ptr %this.addr, align 8
  store ptr getelementptr inbounds ({ [7 x ptr] }, ptr @_ZTVN10polynomial9var2valueI11mpq_managerILb0EE3mpqEE, i32 0, i32 0, i32 2), ptr %this1, align 8
  ret void
}

; Function Attrs: mustprogress nounwind uwtable
define linkonce_odr hidden void @_ZN10polynomial7manager3imp15var2mpq_wrapperD2Ev(ptr noundef nonnull align 8 dereferenceable(40) %this) unnamed_addr #4 comdat align 2 {
entry:
  %this.addr = alloca ptr, align 8
  store ptr %this, ptr %this.addr, align 8
  %this1 = load ptr, ptr %this.addr, align 8
  store ptr getelementptr inbounds ({ [7 x ptr] }, ptr @_ZTVN10polynomial7manager3imp15var2mpq_wrapperE, i32 0, i32 0, i32 2), ptr %this1, align 8
  %m_var_pos = getelementptr inbounds %"struct.polynomial::manager::imp::var2mpq_wrapper", ptr %this1, i32 0, i32 1
  call void @_ZN10polynomial7manager3imp14scoped_var_posD2Ev(ptr noundef nonnull align 8 dereferenceable(24) %m_var_pos) #3
  call void @_ZN10polynomial9var2valueI11mpq_managerILb0EE3mpqED2Ev(ptr noundef nonnull align 8 dereferenceable(8) %this1) #3
  ret void
}

; Function Attrs: mustprogress uwtable
define linkonce_odr hidden void @_ZN10polynomial7manager3imp15var2mpq_wrapperC2EjPKjPK3mpqRNS1_7var_posE(ptr noundef nonnull align 8 dereferenceable(40) %this, i32 noundef %xs_sz, ptr noundef %xs, ptr noundef %vs, ptr noundef nonnull align 8 dereferenceable(8) %buffer) unnamed_addr #5 comdat align 2 personality ptr @__gxx_personality_v0 {
entry:
  %this.addr = alloca ptr, align 8
  %xs_sz.addr = alloca i32, align 4
  %xs.addr = alloca ptr, align 8
  %vs.addr = alloca ptr, align 8
  %buffer.addr = alloca ptr, align 8
  %exn.slot = alloca ptr, align 8
  %ehselector.slot = alloca i32, align 4
  store ptr %this, ptr %this.addr, align 8
  store i32 %xs_sz, ptr %xs_sz.addr, align 4
  store ptr %xs, ptr %xs.addr, align 8
  store ptr %vs, ptr %vs.addr, align 8
  store ptr %buffer, ptr %buffer.addr, align 8
  %this1 = load ptr, ptr %this.addr, align 8
  call void @_ZN10polynomial9var2valueI11mpq_managerILb0EE3mpqEC2Ev(ptr noundef nonnull align 8 dereferenceable(8) %this1) #3
  store ptr getelementptr inbounds ({ [7 x ptr] }, ptr @_ZTVN10polynomial7manager3imp15var2mpq_wrapperE, i32 0, i32 0, i32 2), ptr %this1, align 8
  %m_var_pos = getelementptr inbounds %"struct.polynomial::manager::imp::var2mpq_wrapper", ptr %this1, i32 0, i32 1
  %0 = load ptr, ptr %buffer.addr, align 8
  %1 = load i32, ptr %xs_sz.addr, align 4
  %2 = load ptr, ptr %xs.addr, align 8
  invoke void @_ZN10polynomial7manager3imp14scoped_var_posC2ERNS1_7var_posEjPKj(ptr noundef nonnull align 8 dereferenceable(24) %m_var_pos, ptr noundef nonnull align 8 dereferenceable(8) %0, i32 noundef %1, ptr noundef %2)
          to label %invoke.cont unwind label %lpad

invoke.cont:                                      ; preds = %entry
  %m_vs = getelementptr inbounds %"struct.polynomial::manager::imp::var2mpq_wrapper", ptr %this1, i32 0, i32 2
  %3 = load ptr, ptr %vs.addr, align 8
  store ptr %3, ptr %m_vs, align 8
  ret void

lpad:                                             ; preds = %entry
  %4 = landingpad { ptr, i32 }
          cleanup
  %5 = extractvalue { ptr, i32 } %4, 0
  store ptr %5, ptr %exn.slot, align 8
  %6 = extractvalue { ptr, i32 } %4, 1
  store i32 %6, ptr %ehselector.slot, align 4
  call void @_ZN10polynomial9var2valueI11mpq_managerILb0EE3mpqED2Ev(ptr noundef nonnull align 8 dereferenceable(8) %this1) #3
  br label %eh.resume

eh.resume:                                        ; preds = %lpad
  %exn = load ptr, ptr %exn.slot, align 8
  %sel = load i32, ptr %ehselector.slot, align 4
  %lpad.val = insertvalue { ptr, i32 } poison, ptr %exn, 0
  %lpad.val2 = insertvalue { ptr, i32 } %lpad.val, i32 %sel, 1
  resume { ptr, i32 } %lpad.val2
}

; Function Attrs: mustprogress uwtable
define linkonce_odr hidden noundef ptr @_ZN10polynomial7manager3imp10substituteEPKNS_10polynomialEjPKjPK3mpq(ptr noundef nonnull align 8 dereferenceable(824) %this, ptr noundef %p, i32 noundef %xs_sz, ptr noundef %xs, ptr noundef %vs) #5 comdat align 2 personality ptr @__gxx_personality_v0 {
entry:
  %this.addr = alloca ptr, align 8
  %p.addr = alloca ptr, align 8
  %xs_sz.addr = alloca i32, align 4
  %xs.addr = alloca ptr, align 8
  %vs.addr = alloca ptr, align 8
  %x2v = alloca %"struct.polynomial::manager::imp::var2mpq_wrapper", align 8
  %exn.slot = alloca ptr, align 8
  %ehselector.slot = alloca i32, align 4
  store ptr %this, ptr %this.addr, align 8
  store ptr %p, ptr %p.addr, align 8
  store i32 %xs_sz, ptr %xs_sz.addr, align 4
  store ptr %xs, ptr %xs.addr, align 8
  store ptr %vs, ptr %vs.addr, align 8
  %this1 = load ptr, ptr %this.addr, align 8
  %0 = load i32, ptr %xs_sz.addr, align 4
  %1 = load ptr, ptr %xs.addr, align 8
  %2 = load ptr, ptr %vs.addr, align 8
  %m_var_pos = getelementptr inbounds %"struct.polynomial::manager::imp", ptr %this1, i32 0, i32 31
  call void @_ZN10polynomial7manager3imp15var2mpq_wrapperC2EjPKjPK3mpqRNS1_7var_posE(ptr noundef nonnull align 8 dereferenceable(40) %x2v, i32 noundef %0, ptr noundef %1, ptr noundef %2, ptr noundef nonnull align 8 dereferenceable(8) %m_var_pos)
  %3 = load ptr, ptr %p.addr, align 8
  %call = invoke noundef ptr @_ZN10polynomial7manager3imp10substituteEPKNS_10polynomialERKNS_9var2valueI11mpq_managerILb0EE3mpqEE(ptr noundef nonnull align 8 dereferenceable(824) %this1, ptr noundef %3, ptr noundef nonnull align 8 dereferenceable(8) %x2v)
          to label %invoke.cont unwind label %lpad

invoke.cont:                                      ; preds = %entry
  call void @_ZN10polynomial7manager3imp15var2mpq_wrapperD2Ev(ptr noundef nonnull align 8 dereferenceable(40) %x2v) #3
  ret ptr %call

lpad:                                             ; preds = %entry
  %4 = landingpad { ptr, i32 }
          cleanup
  %5 = extractvalue { ptr, i32 } %4, 0
  store ptr %5, ptr %exn.slot, align 8
  %6 = extractvalue { ptr, i32 } %4, 1
  store i32 %6, ptr %ehselector.slot, align 4
  call void @_ZN10polynomial7manager3imp15var2mpq_wrapperD2Ev(ptr noundef nonnull align 8 dereferenceable(40) %x2v) #3
  br label %eh.resume

eh.resume:                                        ; preds = %lpad
  %exn = load ptr, ptr %exn.slot, align 8
  %sel = load i32, ptr %ehselector.slot, align 4
  %lpad.val = insertvalue { ptr, i32 } poison, ptr %exn, 0
  %lpad.val2 = insertvalue { ptr, i32 } %lpad.val, i32 %sel, 1
  resume { ptr, i32 } %lpad.val2
}

; Function Attrs: mustprogress uwtable
define hidden noundef ptr @_ZN10polynomial7manager10substituteEPKNS_10polynomialEjPKjPK3mpq(ptr noundef nonnull align 8 dereferenceable(8) %this, ptr noundef %p, i32 noundef %xs_sz, ptr noundef %xs, ptr noundef %vs) #5 align 2 {
entry:
  %this.addr = alloca ptr, align 8
  %p.addr = alloca ptr, align 8
  %xs_sz.addr = alloca i32, align 4
  %xs.addr = alloca ptr, align 8
  %vs.addr = alloca ptr, align 8
  store ptr %this, ptr %this.addr, align 8
  store ptr %p, ptr %p.addr, align 8
  store i32 %xs_sz, ptr %xs_sz.addr, align 4
  store ptr %xs, ptr %xs.addr, align 8
  store ptr %vs, ptr %vs.addr, align 8
  %this1 = load ptr, ptr %this.addr, align 8
  %m_imp = getelementptr inbounds %"class.polynomial::manager", ptr %this1, i32 0, i32 0
  %0 = load ptr, ptr %m_imp, align 8
  %1 = load ptr, ptr %p.addr, align 8
  %2 = load i32, ptr %xs_sz.addr, align 4
  %3 = load ptr, ptr %xs.addr, align 8
  %4 = load ptr, ptr %vs.addr, align 8
  %call = call noundef ptr @_ZN10polynomial7manager3imp10substituteEPKNS_10polynomialEjPKjPK3mpq(ptr noundef nonnull align 8 dereferenceable(824) %0, ptr noundef %1, i32 noundef %2, ptr noundef %3, ptr noundef %4)
  ret ptr %call
}