; Function Attrs: mustprogress uwtable
define hidden noundef ptr @_ZN10polynomial7manager10substituteEPKNS_10polynomialEjPKjPK3mpq(ptr nocapture noundef nonnull readonly align 8 dereferenceable(8) %this, ptr noundef %p, i32 noundef %xs_sz, ptr noundef %xs, ptr noundef %vs) local_unnamed_addr #4 align 2 personality ptr @__gxx_personality_v0 {
entry:
  %x2v.i = alloca %"struct.polynomial::manager::imp::var2mpq_wrapper", align 8
  %0 = load ptr, ptr %this, align 8
  call void @llvm.lifetime.start.p0(i64 40, ptr nonnull %x2v.i)
  %m_var_pos.i = getelementptr inbounds i8, ptr %0, i64 800
  store ptr getelementptr inbounds ({ [7 x ptr] }, ptr @_ZTVN10polynomial7manager3imp15var2mpq_wrapperE, i64 0, i32 0, i64 2), ptr %x2v.i, align 8
  %m_var_pos.i.i = getelementptr inbounds i8, ptr %x2v.i, i64 8
  store ptr %m_var_pos.i, ptr %m_var_pos.i.i, align 8
  %m_xs_sz.i.i.i = getelementptr inbounds i8, ptr %x2v.i, i64 16
  store i32 %xs_sz, ptr %m_xs_sz.i.i.i, align 8
  %m_xs.i.i.i = getelementptr inbounds i8, ptr %x2v.i, i64 24
  store ptr %xs, ptr %m_xs.i.i.i, align 8
  tail call void @_ZN10polynomial7manager3imp7var_pos4initEjPKj(ptr noundef nonnull align 8 dereferenceable(8) %m_var_pos.i, i32 noundef %xs_sz, ptr noundef %xs)
  %m_vs.i.i = getelementptr inbounds i8, ptr %x2v.i, i64 32
  store ptr %vs, ptr %m_vs.i.i, align 8
  %call.i = invoke noundef ptr @_ZN10polynomial7manager3imp10substituteEPKNS_10polynomialERKNS_9var2valueI11mpq_managerILb0EE3mpqEE(ptr noundef nonnull align 8 dereferenceable(824) %0, ptr noundef %p, ptr noundef nonnull align 8 dereferenceable(8) %x2v.i)
          to label %invoke.cont.i unwind label %lpad.i

invoke.cont.i:                                    ; preds = %entry
  store ptr getelementptr inbounds ({ [7 x ptr] }, ptr @_ZTVN10polynomial7manager3imp15var2mpq_wrapperE, i64 0, i32 0, i64 2), ptr %x2v.i, align 8
  %1 = load ptr, ptr %m_var_pos.i.i, align 8
  %2 = load i32, ptr %m_xs_sz.i.i.i, align 8
  %3 = load ptr, ptr %m_xs.i.i.i, align 8
  %cmp3.not.i.i.i.i = icmp eq i32 %2, 0
  br i1 %cmp3.not.i.i.i.i, label %_ZN10polynomial7manager3imp10substituteEPKNS_10polynomialEjPKjPK3mpq.exit, label %for.body.preheader.i.i.i.i

for.body.preheader.i.i.i.i:                       ; preds = %invoke.cont.i
  %wide.trip.count.i.i.i.i = zext i32 %2 to i64
  br label %for.body.i.i.i.i

for.body.i.i.i.i:                                 ; preds = %for.body.i.i.i.i, %for.body.preheader.i.i.i.i
  %indvars.iv.i.i.i.i = phi i64 [ 0, %for.body.preheader.i.i.i.i ], [ %indvars.iv.next.i.i.i.i, %for.body.i.i.i.i ]
  %arrayidx.i.i.i.i = getelementptr inbounds i32, ptr %3, i64 %indvars.iv.i.i.i.i
  %4 = load i32, ptr %arrayidx.i.i.i.i, align 4
  %5 = load ptr, ptr %1, align 8
  %idxprom.i.i.i.i.i = zext i32 %4 to i64
  %arrayidx.i.i.i.i.i = getelementptr inbounds i32, ptr %5, i64 %idxprom.i.i.i.i.i
  store i32 -1, ptr %arrayidx.i.i.i.i.i, align 4
  %indvars.iv.next.i.i.i.i = add nuw nsw i64 %indvars.iv.i.i.i.i, 1
  %exitcond.not.i.i.i.i = icmp eq i64 %indvars.iv.next.i.i.i.i, %wide.trip.count.i.i.i.i
  br i1 %exitcond.not.i.i.i.i, label %_ZN10polynomial7manager3imp10substituteEPKNS_10polynomialEjPKjPK3mpq.exit, label %for.body.i.i.i.i, !llvm.loop !97

lpad.i:                                           ; preds = %entry
  %6 = landingpad { ptr, i32 }
          cleanup
  store ptr getelementptr inbounds ({ [7 x ptr] }, ptr @_ZTVN10polynomial7manager3imp15var2mpq_wrapperE, i64 0, i32 0, i64 2), ptr %x2v.i, align 8
  %7 = load ptr, ptr %m_var_pos.i.i, align 8
  %8 = load i32, ptr %m_xs_sz.i.i.i, align 8
  %9 = load ptr, ptr %m_xs.i.i.i, align 8
  %cmp3.not.i.i.i7.i = icmp eq i32 %8, 0
  br i1 %cmp3.not.i.i.i7.i, label %_ZN10polynomial7manager3imp15var2mpq_wrapperD2Ev.exit17.i, label %for.body.preheader.i.i.i8.i

for.body.preheader.i.i.i8.i:                      ; preds = %lpad.i
  %wide.trip.count.i.i.i9.i = zext i32 %8 to i64
  br label %for.body.i.i.i10.i

for.body.i.i.i10.i:                               ; preds = %for.body.i.i.i10.i, %for.body.preheader.i.i.i8.i
  %indvars.iv.i.i.i11.i = phi i64 [ 0, %for.body.preheader.i.i.i8.i ], [ %indvars.iv.next.i.i.i15.i, %for.body.i.i.i10.i ]
  %arrayidx.i.i.i12.i = getelementptr inbounds i32, ptr %9, i64 %indvars.iv.i.i.i11.i
  %10 = load i32, ptr %arrayidx.i.i.i12.i, align 4
  %11 = load ptr, ptr %7, align 8
  %idxprom.i.i.i.i13.i = zext i32 %10 to i64
  %arrayidx.i.i.i.i14.i = getelementptr inbounds i32, ptr %11, i64 %idxprom.i.i.i.i13.i
  store i32 -1, ptr %arrayidx.i.i.i.i14.i, align 4
  %indvars.iv.next.i.i.i15.i = add nuw nsw i64 %indvars.iv.i.i.i11.i, 1
  %exitcond.not.i.i.i16.i = icmp eq i64 %indvars.iv.next.i.i.i15.i, %wide.trip.count.i.i.i9.i
  br i1 %exitcond.not.i.i.i16.i, label %_ZN10polynomial7manager3imp15var2mpq_wrapperD2Ev.exit17.i, label %for.body.i.i.i10.i, !llvm.loop !97

_ZN10polynomial7manager3imp15var2mpq_wrapperD2Ev.exit17.i: ; preds = %for.body.i.i.i10.i, %lpad.i
  resume { ptr, i32 } %6

_ZN10polynomial7manager3imp10substituteEPKNS_10polynomialEjPKjPK3mpq.exit: ; preds = %for.body.i.i.i.i, %invoke.cont.i
  call void @llvm.lifetime.end.p0(i64 40, ptr nonnull %x2v.i)
  ret ptr %call.i
}